Certificate:
    Data:
        Version: 3 (0x2)
        Serial Number: 1461139135 (0x571736bf)
    Signature Algorithm: sha256WithRSAEncryption
        Issuer: C=ww, ST=world, L=redhat, O=jboss, OU=infinispan, CN=ca
        Validity
            Not Before: Apr 20 07:59:26 2016 GMT
            Not After : Apr 20 07:59:26 2036 GMT
        Subject: C=ww, ST=world, L=redhat, O=jboss, OU=infinispan, CN=ca
        Subject Public Key Info:
            Public Key Algorithm: rsaEncryption
                Public-Key: (2048 bit)
                Modulus:
                    00:96:27:c5:eb:2c:0e:f3:e9:aa:73:ab:d9:02:5b:
                    5c:94:4f:06:68:12:b5:99:cd:85:96:c8:03:4d:8a:
                    70:f4:1a:b6:73:7c:48:dd:bd:50:82:0a:e7:75:22:
                    30:ad:16:06:63:cb:3a:07:1e:da:d8:62:b7:50:71:
                    9c:1d:07:c6:53:8e:c7:9e:11:d6:7f:7c:45:a5:8c:
                    31:f2:13:ac:69:30:61:14:24:69:5d:10:2e:e4:44:
                    10:59:eb:0d:58:f0:11:7b:eb:cb:58:8a:34:5a:ac:
                    00:5a:55:c5:28:d5:ad:c1:c0:7d:ba:00:00:3c:c4:
                    a5:7b:88:cf:fd:39:fa:68:b4:db:42:41:41:43:5d:
                    22:9d:31:2d:18:36:1f:64:de:86:ca:b0:70:e8:a9:
                    5b:7c:40:a8:3c:4f:a1:28:f2:32:a1:fc:a8:90:4c:
                    01:18:b9:88:9d:da:84:d0:3b:60:1d:03:9a:f3:30:
                    1e:8b:36:72:f5:72:ef:14:f7:53:bd:46:3f:a5:7c:
                    a6:22:60:82:36:81:a3:49:f6:9c:cb:a6:52:46:07:
                    b0:69:ec:7c:51:2c:08:c9:a0:84:02:b3:bb:db:16:
                    0d:c3:ef:2d:84:d3:c3:02:d3:97:4c:94:22:94:bb:
                    cc:85:a6:68:70:9a:55:70:9e:06:26:e2:18:a3:80:
                    75:fd
                Exponent: 65537 (0x10001)
        X509v3 extensions:
            X509v3 Basic Constraints: 
                CA:TRUE
    Signature Algorithm: sha256WithRSAEncryption
         1c:6e:b4:85:a6:66:66:16:6d:24:5b:38:35:c3:3d:b2:5a:ce:
         8d:15:c7:f9:9a:12:7f:31:f3:23:d0:16:bf:a9:4c:2e:c6:b0:
         51:47:ef:ed:3d:5a:57:56:7d:b0:77:a2:88:40:d0:d1:92:ac:
         c3:87:cf:b1:65:ea:46:dc:b0:91:3d:53:37:13:96:c4:2e:d4:
         cb:63:9a:ab:35:e3:d6:b3:a5:6f:72:98:1e:c2:2c:d8:18:71:
         6d:44:4e:cd:50:c6:a8:d3:03:06:2c:71:bf:78:95:30:a5:2e:
         d4:4f:e4:24:66:be:11:17:4e:c3:15:08:c2:c3:f2:7f:1e:26:
         85:8c:37:6f:af:42:c2:51:22:4d:17:67:22:63:5e:32:57:8e:
         2e:7e:2d:18:cc:cf:14:ba:6e:a3:0d:81:48:99:ad:b2:b0:69:
         2c:fa:5b:51:af:f4:30:70:1a:9c:02:55:23:0d:56:92:b6:82:
         ca:83:9d:1a:c4:ab:61:20:fd:97:e8:90:8c:96:2e:a4:23:51:
         c7:99:a8:59:a2:6d:93:aa:e9:3d:b2:57:34:02:65:f6:96:d9:
         99:a1:56:71:b0:36:a0:25:8d:a7:75:4e:8a:64:a9:e1:fb:6f:
         62:2f:66:97:77:af:63:ac:32:ec:6b:19:7e:b0:22:91:34:12:
         45:04:f2:3d
-----BEGIN CERTIFICATE-----
MIIDTjCCAjagAwIBAgIEVxc2vzANBgkqhkiG9w0BAQsFADBgMQswCQYDVQQGEwJ3
dzEOMAwGA1UECAwFd29ybGQxDzANBgNVBAcMBnJlZGhhdDEOMAwGA1UECgwFamJv
c3MxEzARBgNVBAsMCmluZmluaXNwYW4xCzAJBgNVBAMMAmNhMB4XDTE2MDQyMDA3
NTkyNloXDTM2MDQyMDA3NTkyNlowYDELMAkGA1UEBhMCd3cxDjAMBgNVBAgMBXdv
cmxkMQ8wDQYDVQQHDAZyZWRoYXQxDjAMBgNVBAoMBWpib3NzMRMwEQYDVQQLDApp
bmZpbmlzcGFuMQswCQYDVQQDDAJjYTCCASIwDQYJKoZIhvcNAQEBBQADggEPADCC
AQoCggEBAJYnxessDvPpqnOr2QJbXJRPBmgStZnNhZbIA02KcPQatnN8SN29UIIK
53UiMK0WBmPLOgce2thit1BxnB0HxlOOx54R1n98RaWMMfITrGkwYRQkaV0QLuRE
EFnrDVjwEXvry1iKNFqsAFpVxSjVrcHAfboAADzEpXuIz/05+mi020JBQUNdIp0x
LRg2H2TehsqwcOipW3xAqDxPoSjyMqH8qJBMARi5iJ3ahNA7YB0DmvMwHos2cvVy
7xT3U71GP6V8piJggjaBo0n2nMumUkYHsGnsfFEsCMmghAKzu9sWDcPvLYTTwwLT
l0yUIpS7zIWmaHCaVXCeBibiGKOAdf0CAwEAAaMQMA4wDAYDVR0TBAUwAwEB/zAN
BgkqhkiG9w0BAQsFAAOCAQEAHG60haZmZhZtJFs4NcM9slrOjRXH+ZoSfzHzI9AW
v6lMLsawUUfv7T1aV1Z9sHeiiEDQ0ZKsw4fPsWXqRtywkT1TNxOWxC7Uy2OaqzXj
1rOlb3KYHsIs2BhxbUROzVDGqNMDBixxv3iVMKUu1E/kJGa+ERdOwxUIwsPyfx4m
hYw3b69CwlEiTRdnImNeMleOLn4tGMzPFLpuow2BSJmtsrBpLPpbUa/0MHAanAJV
Iw1WkraCyoOdGsSrYSD9l+iQjJYupCNRx5moWaJtk6rpPbJXNAJl9pbZmaFWcbA2
oCWNp3VOimSp4ftvYi9ml3evY6wy7GsZfrAikTQSRQTyPQ==
-----END CERTIFICATE-----
